; Function Attrs: uwtable
define void @_ZN9grpc_core5Party9RunLockedEv(ptr noundef nonnull align 8 dereferenceable(168) %this) local_unnamed_addr #13 align 2 personality ptr @__gxx_personality_v0 {
entry:
  %vtable.i = load ptr, ptr %this, align 8
  %vfn.i = getelementptr inbounds i8, ptr %vtable.i, i64 72
  %0 = load ptr, ptr %vfn.i, align 8
  %call.i = tail call noundef zeroext i1 %0(ptr noundef nonnull align 8 dereferenceable(168) %this)
  br i1 %call.i, label %if.then.i, label %"_ZZN9grpc_core5Party9RunLockedEvENK3$_0clEv.exit"

if.then.i:                                        ; preds = %entry
  br i1 icmp ne (ptr @_ZTHN9grpc_core8Activity19g_current_activity_E, ptr null), label %1, label %_ZTWN9grpc_core8Activity19g_current_activity_E.exit.i.i

1:                                                ; preds = %if.then.i
  tail call void @_ZTHN9grpc_core8Activity19g_current_activity_E()
  br label %_ZTWN9grpc_core8Activity19g_current_activity_E.exit.i.i

_ZTWN9grpc_core8Activity19g_current_activity_E.exit.i.i: ; preds = %1, %if.then.i
  %2 = tail call noundef align 8 ptr @llvm.threadlocal.address.p0(ptr align 8 @_ZN9grpc_core8Activity19g_current_activity_E)
  %3 = load ptr, ptr %2, align 8
  br i1 icmp ne (ptr @_ZTHN9grpc_core8Activity19g_current_activity_E, ptr null), label %4, label %_ZN9grpc_core8Activity14ScopedActivityC2EPS0_.exit.i

4:                                                ; preds = %_ZTWN9grpc_core8Activity19g_current_activity_E.exit.i.i
  tail call void @_ZTHN9grpc_core8Activity19g_current_activity_E()
  br label %_ZN9grpc_core8Activity14ScopedActivityC2EPS0_.exit.i

_ZN9grpc_core8Activity14ScopedActivityC2EPS0_.exit.i: ; preds = %4, %_ZTWN9grpc_core8Activity19g_current_activity_E.exit.i.i
  store ptr %this, ptr %2, align 8
  %vtable2.i = load ptr, ptr %this, align 8
  %vfn3.i = getelementptr inbounds i8, ptr %vtable2.i, i64 80
  %5 = load ptr, ptr %vfn3.i, align 8
  invoke void %5(ptr noundef nonnull align 8 dereferenceable(168) %this)
          to label %invoke.cont.i unwind label %lpad.i

invoke.cont.i:                                    ; preds = %_ZN9grpc_core8Activity14ScopedActivityC2EPS0_.exit.i
  br i1 icmp ne (ptr @_ZTHN9grpc_core8Activity19g_current_activity_E, ptr null), label %6, label %_ZN9grpc_core8Activity14ScopedActivityD2Ev.exit.i

6:                                                ; preds = %invoke.cont.i
  tail call void @_ZTHN9grpc_core8Activity19g_current_activity_E() #26
  br label %_ZN9grpc_core8Activity14ScopedActivityD2Ev.exit.i

_ZN9grpc_core8Activity14ScopedActivityD2Ev.exit.i: ; preds = %6, %invoke.cont.i
  store ptr %3, ptr %2, align 8
  br label %"_ZZN9grpc_core5Party9RunLockedEvENK3$_0clEv.exit"

lpad.i:                                           ; preds = %_ZN9grpc_core8Activity14ScopedActivityC2EPS0_.exit.i
  %7 = landingpad { ptr, i32 }
          cleanup
  br i1 icmp ne (ptr @_ZTHN9grpc_core8Activity19g_current_activity_E, ptr null), label %8, label %_ZN9grpc_core8Activity14ScopedActivityD2Ev.exit3.i

8:                                                ; preds = %lpad.i
  tail call void @_ZTHN9grpc_core8Activity19g_current_activity_E() #26
  br label %_ZN9grpc_core8Activity14ScopedActivityD2Ev.exit3.i

_ZN9grpc_core8Activity14ScopedActivityD2Ev.exit3.i: ; preds = %8, %lpad.i
  store ptr %3, ptr %2, align 8
  resume { ptr, i32 } %7

"_ZZN9grpc_core5Party9RunLockedEvENK3$_0clEv.exit": ; preds = %entry, %_ZN9grpc_core8Activity14ScopedActivityD2Ev.exit.i
  ret void
}